target datalayout = "e-m:e-p270:32:32-p271:32:32-p272:64:64-i64:64-i128:128-f80:128-n8:16:32:64-S128"
target triple = "x86_64-pc-linux-gnu"

%struct.b2DynamicTree = type { ptr, i32, i32, i32, i32, i32, ptr, ptr, ptr, ptr, i32 }

; Function Attrs: nounwind uwtable
define void @b2DynamicTree_Destroy(ptr noundef %0) #0 {
  %2 = alloca ptr, align 8
  store ptr %0, ptr %2, align 8, !tbaa !27
  %3 = load ptr, ptr %2, align 8, !tbaa !27
  %4 = getelementptr inbounds nuw %struct.b2DynamicTree, ptr %3, i32 0, i32 0
  %5 = load ptr, ptr %4, align 8, !tbaa !15
  %6 = load ptr, ptr %2, align 8, !tbaa !27
  %7 = getelementptr inbounds nuw %struct.b2DynamicTree, ptr %6, i32 0, i32 3
  %8 = load i32, ptr %7, align 8, !tbaa !13
  %9 = sext i32 %8 to i64
  %10 = mul i64 %9, 40
  %11 = trunc i64 %10 to i32
  call void @b2Free(ptr noundef %5, i32 noundef %11)
  %12 = load ptr, ptr %2, align 8, !tbaa !27
  %13 = getelementptr inbounds nuw %struct.b2DynamicTree, ptr %12, i32 0, i32 6
  %14 = load ptr, ptr %13, align 8, !tbaa !22
  %15 = load ptr, ptr %2, align 8, !tbaa !27
  %16 = getelementptr inbounds nuw %struct.b2DynamicTree, ptr %15, i32 0, i32 10
  %17 = load i32, ptr %16, align 8, !tbaa !26
  %18 = sext i32 %17 to i64
  %19 = mul i64 %18, 4
  %20 = trunc i64 %19 to i32
  call void @b2Free(ptr noundef %14, i32 noundef %20)
  %21 = load ptr, ptr %2, align 8, !tbaa !27
  %22 = getelementptr inbounds nuw %struct.b2DynamicTree, ptr %21, i32 0, i32 7
  %23 = load ptr, ptr %22, align 8, !tbaa !23
  %24 = load ptr, ptr %2, align 8, !tbaa !27
  %25 = getelementptr inbounds nuw %struct.b2DynamicTree, ptr %24, i32 0, i32 10
  %26 = load i32, ptr %25, align 8, !tbaa !26
  %27 = sext i32 %26 to i64
  %28 = mul i64 %27, 16
  %29 = trunc i64 %28 to i32
  call void @b2Free(ptr noundef %23, i32 noundef %29)
  %30 = load ptr, ptr %2, align 8, !tbaa !27
  %31 = getelementptr inbounds nuw %struct.b2DynamicTree, ptr %30, i32 0, i32 8
  %32 = load ptr, ptr %31, align 8, !tbaa !24
  %33 = load ptr, ptr %2, align 8, !tbaa !27
  %34 = getelementptr inbounds nuw %struct.b2DynamicTree, ptr %33, i32 0, i32 10
  %35 = load i32, ptr %34, align 8, !tbaa !26
  %36 = sext i32 %35 to i64
  %37 = mul i64 %36, 8
  %38 = trunc i64 %37 to i32
  call void @b2Free(ptr noundef %32, i32 noundef %38)
  %39 = load ptr, ptr %2, align 8, !tbaa !27
  %40 = getelementptr inbounds nuw %struct.b2DynamicTree, ptr %39, i32 0, i32 9
  %41 = load ptr, ptr %40, align 8, !tbaa !25
  %42 = load ptr, ptr %2, align 8, !tbaa !27
  %43 = getelementptr inbounds nuw %struct.b2DynamicTree, ptr %42, i32 0, i32 10
  %44 = load i32, ptr %43, align 8, !tbaa !26
  %45 = sext i32 %44 to i64
  %46 = mul i64 %45, 4
  %47 = trunc i64 %46 to i32
  call void @b2Free(ptr noundef %41, i32 noundef %47)
  %48 = load ptr, ptr %2, align 8, !tbaa !27
  call void @llvm.memset.p0.i64(ptr align 8 %48, i8 0, i64 72, i1 false)
  ret void
}