; Function Attrs: nounwind uwtable
define void @b2DynamicTree_Destroy(ptr noundef captures(none) initializes((8, 16), (20, 32), (68, 72)) %0) local_unnamed_addr #0 {
  %2 = load ptr, ptr %0, align 8, !tbaa !15
  %3 = getelementptr inbounds nuw i8, ptr %0, i64 16
  %4 = load i32, ptr %3, align 8, !tbaa !13
  %5 = mul i32 %4, 40
  tail call void @b2Free(ptr noundef %2, i32 noundef %5) #13
  %6 = getelementptr inbounds nuw i8, ptr %0, i64 32
  %7 = load ptr, ptr %6, align 8, !tbaa !21
  %8 = getelementptr inbounds nuw i8, ptr %0, i64 64
  %9 = load i32, ptr %8, align 8, !tbaa !22
  %10 = shl i32 %9, 2
  tail call void @b2Free(ptr noundef %7, i32 noundef %10) #13
  %11 = getelementptr inbounds nuw i8, ptr %0, i64 40
  %12 = load ptr, ptr %11, align 8, !tbaa !23
  %13 = load i32, ptr %8, align 8, !tbaa !22
  %14 = shl i32 %13, 4
  tail call void @b2Free(ptr noundef %12, i32 noundef %14) #13
  %15 = getelementptr inbounds nuw i8, ptr %0, i64 48
  %16 = load ptr, ptr %15, align 8, !tbaa !24
  %17 = load i32, ptr %8, align 8, !tbaa !22
  %18 = shl i32 %17, 3
  tail call void @b2Free(ptr noundef %16, i32 noundef %18) #13
  %19 = getelementptr inbounds nuw i8, ptr %0, i64 56
  %20 = load ptr, ptr %19, align 8, !tbaa !25
  %21 = load i32, ptr %8, align 8, !tbaa !22
  %22 = shl i32 %21, 2
  tail call void @b2Free(ptr noundef %20, i32 noundef %22) #13
  tail call void @llvm.memset.p0.i64(ptr noundef nonnull align 8 dereferenceable(72) %0, i8 0, i64 72, i1 false)
  ret void
}